target datalayout = "e-m:e-p270:32:32-p271:32:32-p272:64:64-i64:64-i128:128-f80:128-n8:16:32:64-S128"
target triple = "x86_64-pc-linux-gnu"

%struct.Aig_MmFixed_t_ = type { i32, i32, i32, i32, ptr, i32, i32, i32, ptr, i32, i32 }

; Function Attrs: nounwind uwtable
define void @Aig_MmFixedEntryRecycle(ptr noundef %0, ptr noundef %1) #0 {
  %3 = alloca ptr, align 8
  %4 = alloca ptr, align 8
  store ptr %0, ptr %3, align 8, !tbaa !7
  store ptr %1, ptr %4, align 8, !tbaa !24
  %5 = load ptr, ptr %3, align 8, !tbaa !7
  %6 = getelementptr inbounds nuw %struct.Aig_MmFixed_t_, ptr %5, i32 0, i32 2
  %7 = load i32, ptr %6, align 8, !tbaa !15
  %8 = add nsw i32 %7, -1
  store i32 %8, ptr %6, align 8, !tbaa !15
  %9 = load ptr, ptr %3, align 8, !tbaa !7
  %10 = getelementptr inbounds nuw %struct.Aig_MmFixed_t_, ptr %9, i32 0, i32 4
  %11 = load ptr, ptr %10, align 8, !tbaa !16
  %12 = load ptr, ptr %4, align 8, !tbaa !24
  store ptr %11, ptr %12, align 8, !tbaa !24
  %13 = load ptr, ptr %4, align 8, !tbaa !24
  %14 = load ptr, ptr %3, align 8, !tbaa !7
  %15 = getelementptr inbounds nuw %struct.Aig_MmFixed_t_, ptr %14, i32 0, i32 4
  store ptr %13, ptr %15, align 8, !tbaa !16
  ret void
}